target datalayout = "e-m:e-p270:32:32-p271:32:32-p272:64:64-i64:64-i128:128-f80:128-n8:16:32:64-S128"
target triple = "x86_64-pc-linux-gnu"

%struct.point_t = type { float, float }
%struct.dt_lut_t = type { ptr, ptr, ptr, ptr, ptr, ptr, ptr, ptr, ptr, ptr, ptr, ptr, ptr, ptr, ptr, ptr, ptr, %struct.image_t, %struct.image_t, ptr, ptr, ptr, ptr, ptr }
%struct.image_t = type { ptr, ptr, ptr, i32, i32, ptr, float, i32, i32, float, [4 x %struct.point_t], ptr, i32 }
%struct.chart_t = type { ptr, ptr, ptr, ptr, float, float, float, float }

; Function Attrs: nounwind uwtable
define internal void @collect_reference_patches(ptr noundef %0) #0 {
  %2 = alloca ptr, align 8
  store ptr %0, ptr %2, align 8, !tbaa !14
  %3 = load ptr, ptr %2, align 8, !tbaa !14
  %4 = getelementptr inbounds nuw %struct.dt_lut_t, ptr %3, i32 0, i32 20
  %5 = load ptr, ptr %4, align 8, !tbaa !31
  %6 = icmp ne ptr %5, null
  br i1 %6, label %7, label %14

7:                                                ; preds = %1
  %8 = load ptr, ptr %2, align 8, !tbaa !14
  %9 = getelementptr inbounds nuw %struct.dt_lut_t, ptr %8, i32 0, i32 20
  %10 = load ptr, ptr %9, align 8, !tbaa !31
  %11 = getelementptr inbounds nuw %struct.chart_t, ptr %10, i32 0, i32 2
  %12 = load ptr, ptr %11, align 8, !tbaa !124
  %13 = load ptr, ptr %2, align 8, !tbaa !14
  call void @g_hash_table_foreach(ptr noundef %12, ptr noundef @collect_reference_patches_foreach, ptr noundef %13)
  br label %14

14:                                               ; preds = %7, %1
  ret void
}

; Function Attrs: nounwind uwtable
define internal i32 @motion_notify_callback_reference(ptr noundef %0, ptr noundef %1, ptr noundef %2) #0 {
  %4 = alloca ptr, align 8
  %5 = alloca ptr, align 8
  %6 = alloca ptr, align 8
  %7 = alloca ptr, align 8
  %8 = alloca i32, align 4
  store ptr %0, ptr %4, align 8, !tbaa !38
  store ptr %1, ptr %5, align 8, !tbaa !99
  store ptr %2, ptr %6, align 8, !tbaa !62
  call void @llvm.lifetime.start.p0(i64 8, ptr %7) #15
  %9 = load ptr, ptr %6, align 8, !tbaa !62
  store ptr %9, ptr %7, align 8, !tbaa !14
  call void @llvm.lifetime.start.p0(i64 4, ptr %8) #15
  %10 = load ptr, ptr %4, align 8, !tbaa !38
  %11 = load ptr, ptr %5, align 8, !tbaa !99
  %12 = load ptr, ptr %7, align 8, !tbaa !14
  %13 = load ptr, ptr %7, align 8, !tbaa !14
  %14 = getelementptr inbounds nuw %struct.dt_lut_t, ptr %13, i32 0, i32 18
  %15 = call i32 @handle_motion(ptr noundef %10, ptr noundef %11, ptr noundef %12, ptr noundef %14)
  store i32 %15, ptr %8, align 4, !tbaa !7
  %16 = load i32, ptr %8, align 4, !tbaa !7
  %17 = icmp ne i32 %16, 0
  br i1 %17, label %18, label %21

18:                                               ; preds = %3
  %19 = load ptr, ptr %7, align 8, !tbaa !14
  call void @collect_reference_patches(ptr noundef %19)
  %20 = load ptr, ptr %7, align 8, !tbaa !14
  call void @update_table(ptr noundef %20)
  br label %21

21:                                               ; preds = %18, %3
  %22 = load i32, ptr %8, align 4, !tbaa !7
  call void @llvm.lifetime.end.p0(i64 4, ptr %8) #15
  call void @llvm.lifetime.end.p0(i64 8, ptr %7) #15
  ret i32 %22
}